target datalayout = "e-m:e-p270:32:32-p271:32:32-p272:64:64-i64:64-i128:128-f80:128-n8:16:32:64-S128"
target triple = "x86_64-pc-linux-gnu"

%class.btGeneric6DofConstraint = type <{ %class.btTypedConstraint, %class.btTransform, %class.btTransform, [3 x %class.btJacobianEntry], [3 x %class.btJacobianEntry], %class.btTranslationalLimitMotor, [3 x %class.btRotationalLimitMotor], float, %class.btTransform, %class.btTransform, %class.btVector3, [3 x %class.btVector3], %class.btVector3, float, float, i8, [3 x i8], %class.btVector3, i8, i8, [2 x i8], i32, i8, [3 x i8] }>
%class.btTypedConstraint = type { ptr, %struct.btTypedObject, i32, %union.anon.0, float, i8, i8, i32, ptr, ptr, float, float, ptr }
%struct.btTypedObject = type { i32 }
%union.anon.0 = type { ptr }
%class.btJacobianEntry = type { %class.btVector3, %class.btVector3, %class.btVector3, %class.btVector3, %class.btVector3, float }
%class.btTranslationalLimitMotor = type { %class.btVector3, %class.btVector3, %class.btVector3, float, float, float, %class.btVector3, %class.btVector3, %class.btVector3, [3 x i8], %class.btVector3, %class.btVector3, %class.btVector3, %class.btVector3, [3 x i32] }
%class.btRotationalLimitMotor = type { float, float, float, float, float, float, float, float, float, float, float, i8, float, float, i32, float }
%class.btTransform = type { %class.btMatrix3x3, %class.btVector3 }
%class.btMatrix3x3 = type { [3 x %class.btVector3] }
%class.btVector3 = type { [4 x float] }
%class.btAlignedObjectArray = type <{ [4 x i8], i32, i32, [4 x i8], ptr, i8, [7 x i8] }>
%class.btRigidBody = type { %class.btCollisionObject.base, %class.btMatrix3x3, %class.btVector3, %class.btVector3, float, %class.btVector3, %class.btVector3, %class.btVector3, %class.btVector3, %class.btVector3, %class.btVector3, float, float, i8, float, float, float, float, float, float, ptr, %class.btAlignedObjectArray.1, i32, i32, %class.btVector3, %class.btVector3, %class.btVector3, %class.btVector3, %class.btVector3, %class.btVector3, i32, i32 }
%class.btCollisionObject.base = type <{ ptr, %class.btTransform, %class.btTransform, %class.btVector3, %class.btVector3, %class.btVector3, i32, float, ptr, ptr, ptr, ptr, i32, i32, i32, i32, i32, float, float, float, float, float, float, float, i32, [4 x i8], ptr, i32, i32, i32, float, float, float, i32, [4 x i8], %class.btAlignedObjectArray, i32, %class.btVector3 }>
%class.btAlignedObjectArray.1 = type <{ [4 x i8], i32, i32, [4 x i8], ptr, i8, [7 x i8] }>

; Function Attrs: inlinehint mustprogress nounwind uwtable
define linkonce_odr dso_local void @_ZN9btVector3C2ERKfS1_S1_(ptr noundef nonnull align 4 dereferenceable(16) %0, ptr noundef nonnull align 4 dereferenceable(4) %1, ptr noundef nonnull align 4 dereferenceable(4) %2, ptr noundef nonnull align 4 dereferenceable(4) %3) unnamed_addr #5 comdat align 2 {
  %5 = alloca ptr, align 8
  %6 = alloca ptr, align 8
  %7 = alloca ptr, align 8
  %8 = alloca ptr, align 8
  store ptr %0, ptr %5, align 8, !tbaa !66
  store ptr %1, ptr %6, align 8, !tbaa !72
  store ptr %2, ptr %7, align 8, !tbaa !72
  store ptr %3, ptr %8, align 8, !tbaa !72
  %9 = load ptr, ptr %5, align 8
  %10 = load ptr, ptr %6, align 8, !tbaa !72
  %11 = load float, ptr %10, align 4, !tbaa !42
  %12 = getelementptr inbounds nuw %class.btVector3, ptr %9, i32 0, i32 0
  %13 = getelementptr inbounds [4 x float], ptr %12, i64 0, i64 0
  store float %11, ptr %13, align 4, !tbaa !42
  %14 = load ptr, ptr %7, align 8, !tbaa !72
  %15 = load float, ptr %14, align 4, !tbaa !42
  %16 = getelementptr inbounds nuw %class.btVector3, ptr %9, i32 0, i32 0
  %17 = getelementptr inbounds [4 x float], ptr %16, i64 0, i64 1
  store float %15, ptr %17, align 4, !tbaa !42
  %18 = load ptr, ptr %8, align 8, !tbaa !72
  %19 = load float, ptr %18, align 4, !tbaa !42
  %20 = getelementptr inbounds nuw %class.btVector3, ptr %9, i32 0, i32 0
  %21 = getelementptr inbounds [4 x float], ptr %20, i64 0, i64 2
  store float %19, ptr %21, align 4, !tbaa !42
  %22 = getelementptr inbounds nuw %class.btVector3, ptr %9, i32 0, i32 0
  %23 = getelementptr inbounds [4 x float], ptr %22, i64 0, i64 3
  store float 0.000000e+00, ptr %23, align 4, !tbaa !42
  ret void
}

; Function Attrs: inlinehint mustprogress uwtable
define linkonce_odr dso_local { <2 x float>, <2 x float> } @_ZplRK9btVector3S1_(ptr noundef nonnull align 4 dereferenceable(16) %0, ptr noundef nonnull align 4 dereferenceable(16) %1) #4 comdat {
  %3 = alloca %class.btVector3, align 4
  %4 = alloca ptr, align 8
  %5 = alloca ptr, align 8
  %6 = alloca float, align 4
  %7 = alloca float, align 4
  %8 = alloca float, align 4
  store ptr %0, ptr %4, align 8, !tbaa !66
  store ptr %1, ptr %5, align 8, !tbaa !66
  call void @llvm.lifetime.start.p0(i64 4, ptr %6) #13
  %9 = load ptr, ptr %4, align 8, !tbaa !66
  %10 = getelementptr inbounds nuw %class.btVector3, ptr %9, i32 0, i32 0
  %11 = getelementptr inbounds [4 x float], ptr %10, i64 0, i64 0
  %12 = load float, ptr %11, align 4, !tbaa !42
  %13 = load ptr, ptr %5, align 8, !tbaa !66
  %14 = getelementptr inbounds nuw %class.btVector3, ptr %13, i32 0, i32 0
  %15 = getelementptr inbounds [4 x float], ptr %14, i64 0, i64 0
  %16 = load float, ptr %15, align 4, !tbaa !42
  %17 = fadd float %12, %16
  store float %17, ptr %6, align 4, !tbaa !42
  call void @llvm.lifetime.start.p0(i64 4, ptr %7) #13
  %18 = load ptr, ptr %4, align 8, !tbaa !66
  %19 = getelementptr inbounds nuw %class.btVector3, ptr %18, i32 0, i32 0
  %20 = getelementptr inbounds [4 x float], ptr %19, i64 0, i64 1
  %21 = load float, ptr %20, align 4, !tbaa !42
  %22 = load ptr, ptr %5, align 8, !tbaa !66
  %23 = getelementptr inbounds nuw %class.btVector3, ptr %22, i32 0, i32 0
  %24 = getelementptr inbounds [4 x float], ptr %23, i64 0, i64 1
  %25 = load float, ptr %24, align 4, !tbaa !42
  %26 = fadd float %21, %25
  store float %26, ptr %7, align 4, !tbaa !42
  call void @llvm.lifetime.start.p0(i64 4, ptr %8) #13
  %27 = load ptr, ptr %4, align 8, !tbaa !66
  %28 = getelementptr inbounds nuw %class.btVector3, ptr %27, i32 0, i32 0
  %29 = getelementptr inbounds [4 x float], ptr %28, i64 0, i64 2
  %30 = load float, ptr %29, align 4, !tbaa !42
  %31 = load ptr, ptr %5, align 8, !tbaa !66
  %32 = getelementptr inbounds nuw %class.btVector3, ptr %31, i32 0, i32 0
  %33 = getelementptr inbounds [4 x float], ptr %32, i64 0, i64 2
  %34 = load float, ptr %33, align 4, !tbaa !42
  %35 = fadd float %30, %34
  store float %35, ptr %8, align 4, !tbaa !42
  call void @_ZN9btVector3C2ERKfS1_S1_(ptr noundef nonnull align 4 dereferenceable(16) %3, ptr noundef nonnull align 4 dereferenceable(4) %6, ptr noundef nonnull align 4 dereferenceable(4) %7, ptr noundef nonnull align 4 dereferenceable(4) %8)
  call void @llvm.lifetime.end.p0(i64 4, ptr %8) #13
  call void @llvm.lifetime.end.p0(i64 4, ptr %7) #13
  call void @llvm.lifetime.end.p0(i64 4, ptr %6) #13
  %36 = getelementptr inbounds nuw %class.btVector3, ptr %3, i32 0, i32 0
  %37 = load { <2 x float>, <2 x float> }, ptr %36, align 4
  ret { <2 x float>, <2 x float> } %37
}

; Function Attrs: inlinehint mustprogress uwtable
define linkonce_odr dso_local { <2 x float>, <2 x float> } @_ZmlRK9btVector3RKf(ptr noundef nonnull align 4 dereferenceable(16) %0, ptr noundef nonnull align 4 dereferenceable(4) %1) #4 comdat {
  %3 = alloca %class.btVector3, align 4
  %4 = alloca ptr, align 8
  %5 = alloca ptr, align 8
  %6 = alloca float, align 4
  %7 = alloca float, align 4
  %8 = alloca float, align 4
  store ptr %0, ptr %4, align 8, !tbaa !66
  store ptr %1, ptr %5, align 8, !tbaa !72
  call void @llvm.lifetime.start.p0(i64 4, ptr %6) #13
  %9 = load ptr, ptr %4, align 8, !tbaa !66
  %10 = getelementptr inbounds nuw %class.btVector3, ptr %9, i32 0, i32 0
  %11 = getelementptr inbounds [4 x float], ptr %10, i64 0, i64 0
  %12 = load float, ptr %11, align 4, !tbaa !42
  %13 = load ptr, ptr %5, align 8, !tbaa !72
  %14 = load float, ptr %13, align 4, !tbaa !42
  %15 = fmul float %12, %14
  store float %15, ptr %6, align 4, !tbaa !42
  call void @llvm.lifetime.start.p0(i64 4, ptr %7) #13
  %16 = load ptr, ptr %4, align 8, !tbaa !66
  %17 = getelementptr inbounds nuw %class.btVector3, ptr %16, i32 0, i32 0
  %18 = getelementptr inbounds [4 x float], ptr %17, i64 0, i64 1
  %19 = load float, ptr %18, align 4, !tbaa !42
  %20 = load ptr, ptr %5, align 8, !tbaa !72
  %21 = load float, ptr %20, align 4, !tbaa !42
  %22 = fmul float %19, %21
  store float %22, ptr %7, align 4, !tbaa !42
  call void @llvm.lifetime.start.p0(i64 4, ptr %8) #13
  %23 = load ptr, ptr %4, align 8, !tbaa !66
  %24 = getelementptr inbounds nuw %class.btVector3, ptr %23, i32 0, i32 0
  %25 = getelementptr inbounds [4 x float], ptr %24, i64 0, i64 2
  %26 = load float, ptr %25, align 4, !tbaa !42
  %27 = load ptr, ptr %5, align 8, !tbaa !72
  %28 = load float, ptr %27, align 4, !tbaa !42
  %29 = fmul float %26, %28
  store float %29, ptr %8, align 4, !tbaa !42
  call void @_ZN9btVector3C2ERKfS1_S1_(ptr noundef nonnull align 4 dereferenceable(16) %3, ptr noundef nonnull align 4 dereferenceable(4) %6, ptr noundef nonnull align 4 dereferenceable(4) %7, ptr noundef nonnull align 4 dereferenceable(4) %8)
  call void @llvm.lifetime.end.p0(i64 4, ptr %8) #13
  call void @llvm.lifetime.end.p0(i64 4, ptr %7) #13
  call void @llvm.lifetime.end.p0(i64 4, ptr %6) #13
  %30 = getelementptr inbounds nuw %class.btVector3, ptr %3, i32 0, i32 0
  %31 = load { <2 x float>, <2 x float> }, ptr %30, align 4
  ret { <2 x float>, <2 x float> } %31
}

; Function Attrs: inlinehint mustprogress nounwind uwtable
define linkonce_odr dso_local noundef nonnull align 4 dereferenceable(16) ptr @_ZN11btTransform9getOriginEv(ptr noundef nonnull align 4 dereferenceable(64) %0) #5 comdat align 2 {
  %2 = alloca ptr, align 8
  store ptr %0, ptr %2, align 8, !tbaa !16
  %3 = load ptr, ptr %2, align 8
  %4 = getelementptr inbounds nuw %class.btTransform, ptr %3, i32 0, i32 1
  ret ptr %4
}

; Function Attrs: mustprogress nounwind uwtable
define linkonce_odr dso_local noundef float @_ZNK11btRigidBody10getInvMassEv(ptr noundef nonnull align 8 dereferenceable(744) %0) #1 comdat align 2 {
  %2 = alloca ptr, align 8
  store ptr %0, ptr %2, align 8, !tbaa !14
  %3 = load ptr, ptr %2, align 8
  %4 = getelementptr inbounds nuw %class.btRigidBody, ptr %3, i32 0, i32 4
  %5 = load float, ptr %4, align 4, !tbaa !74
  ret float %5
}

; Function Attrs: mustprogress uwtable
define dso_local void @_ZN23btGeneric6DofConstraint13calcAnchorPosEv(ptr noundef nonnull align 8 dereferenceable(1333) %0) unnamed_addr #8 align 2 {
  %2 = alloca ptr, align 8
  %3 = alloca float, align 4
  %4 = alloca float, align 4
  %5 = alloca float, align 4
  %6 = alloca ptr, align 8
  %7 = alloca ptr, align 8
  %8 = alloca %class.btVector3, align 4
  %9 = alloca %class.btVector3, align 4
  %10 = alloca %class.btVector3, align 4
  %11 = alloca float, align 4
  store ptr %0, ptr %2, align 8, !tbaa !12
  %12 = load ptr, ptr %2, align 8
  call void @llvm.lifetime.start.p0(i64 4, ptr %3) #13
  %13 = getelementptr inbounds nuw %class.btTypedConstraint, ptr %12, i32 0, i32 8
  %14 = load ptr, ptr %13, align 8, !tbaa !68
  %15 = call noundef float @_ZNK11btRigidBody10getInvMassEv(ptr noundef nonnull align 8 dereferenceable(744) %14)
  store float %15, ptr %3, align 4, !tbaa !42
  call void @llvm.lifetime.start.p0(i64 4, ptr %4) #13
  %16 = getelementptr inbounds nuw %class.btTypedConstraint, ptr %12, i32 0, i32 9
  %17 = load ptr, ptr %16, align 8, !tbaa !69
  %18 = call noundef float @_ZNK11btRigidBody10getInvMassEv(ptr noundef nonnull align 8 dereferenceable(744) %17)
  store float %18, ptr %4, align 4, !tbaa !42
  call void @llvm.lifetime.start.p0(i64 4, ptr %5) #13
  %19 = load float, ptr %4, align 4, !tbaa !42
  %20 = fcmp oeq float %19, 0.000000e+00
  br i1 %20, label %21, label %22

21:                                               ; preds = %1
  store float 1.000000e+00, ptr %5, align 4, !tbaa !42
  br label %28

22:                                               ; preds = %1
  %23 = load float, ptr %3, align 4, !tbaa !42
  %24 = load float, ptr %3, align 4, !tbaa !42
  %25 = load float, ptr %4, align 4, !tbaa !42
  %26 = fadd float %24, %25
  %27 = fdiv float %23, %26
  store float %27, ptr %5, align 4, !tbaa !42
  br label %28

28:                                               ; preds = %22, %21
  call void @llvm.lifetime.start.p0(i64 8, ptr %6) #13
  %29 = getelementptr inbounds nuw %class.btGeneric6DofConstraint, ptr %12, i32 0, i32 8
  %30 = call noundef nonnull align 4 dereferenceable(16) ptr @_ZN11btTransform9getOriginEv(ptr noundef nonnull align 4 dereferenceable(64) %29)
  store ptr %30, ptr %6, align 8, !tbaa !66
  call void @llvm.lifetime.start.p0(i64 8, ptr %7) #13
  %31 = getelementptr inbounds nuw %class.btGeneric6DofConstraint, ptr %12, i32 0, i32 9
  %32 = call noundef nonnull align 4 dereferenceable(16) ptr @_ZN11btTransform9getOriginEv(ptr noundef nonnull align 4 dereferenceable(64) %31)
  store ptr %32, ptr %7, align 8, !tbaa !66
  call void @llvm.lifetime.start.p0(i64 16, ptr %8) #13
  call void @llvm.lifetime.start.p0(i64 16, ptr %9) #13
  %33 = load ptr, ptr %6, align 8, !tbaa !66
  %34 = call { <2 x float>, <2 x float> } @_ZmlRK9btVector3RKf(ptr noundef nonnull align 4 dereferenceable(16) %33, ptr noundef nonnull align 4 dereferenceable(4) %5)
  %35 = getelementptr inbounds nuw %class.btVector3, ptr %9, i32 0, i32 0
  %36 = getelementptr inbounds nuw { <2 x float>, <2 x float> }, ptr %35, i32 0, i32 0
  %37 = extractvalue { <2 x float>, <2 x float> } %34, 0
  store <2 x float> %37, ptr %36, align 4
  %38 = getelementptr inbounds nuw { <2 x float>, <2 x float> }, ptr %35, i32 0, i32 1
  %39 = extractvalue { <2 x float>, <2 x float> } %34, 1
  store <2 x float> %39, ptr %38, align 4
  call void @llvm.lifetime.start.p0(i64 16, ptr %10) #13
  %40 = load ptr, ptr %7, align 8, !tbaa !66
  call void @llvm.lifetime.start.p0(i64 4, ptr %11) #13
  %41 = load float, ptr %5, align 4, !tbaa !42
  %42 = fsub float 1.000000e+00, %41
  store float %42, ptr %11, align 4, !tbaa !42
  %43 = call { <2 x float>, <2 x float> } @_ZmlRK9btVector3RKf(ptr noundef nonnull align 4 dereferenceable(16) %40, ptr noundef nonnull align 4 dereferenceable(4) %11)
  %44 = getelementptr inbounds nuw %class.btVector3, ptr %10, i32 0, i32 0
  %45 = getelementptr inbounds nuw { <2 x float>, <2 x float> }, ptr %44, i32 0, i32 0
  %46 = extractvalue { <2 x float>, <2 x float> } %43, 0
  store <2 x float> %46, ptr %45, align 4
  %47 = getelementptr inbounds nuw { <2 x float>, <2 x float> }, ptr %44, i32 0, i32 1
  %48 = extractvalue { <2 x float>, <2 x float> } %43, 1
  store <2 x float> %48, ptr %47, align 4
  %49 = call { <2 x float>, <2 x float> } @_ZplRK9btVector3S1_(ptr noundef nonnull align 4 dereferenceable(16) %9, ptr noundef nonnull align 4 dereferenceable(16) %10)
  %50 = getelementptr inbounds nuw %class.btVector3, ptr %8, i32 0, i32 0
  %51 = getelementptr inbounds nuw { <2 x float>, <2 x float> }, ptr %50, i32 0, i32 0
  %52 = extractvalue { <2 x float>, <2 x float> } %49, 0
  store <2 x float> %52, ptr %51, align 4
  %53 = getelementptr inbounds nuw { <2 x float>, <2 x float> }, ptr %50, i32 0, i32 1
  %54 = extractvalue { <2 x float>, <2 x float> } %49, 1
  store <2 x float> %54, ptr %53, align 4
  %55 = getelementptr inbounds nuw %class.btGeneric6DofConstraint, ptr %12, i32 0, i32 17
  call void @llvm.memcpy.p0.p0.i64(ptr align 4 %55, ptr align 4 %8, i64 16, i1 false), !tbaa.struct !37
  call void @llvm.lifetime.end.p0(i64 4, ptr %11) #13
  call void @llvm.lifetime.end.p0(i64 16, ptr %10) #13
  call void @llvm.lifetime.end.p0(i64 16, ptr %9) #13
  call void @llvm.lifetime.end.p0(i64 16, ptr %8) #13
  call void @llvm.lifetime.end.p0(i64 8, ptr %7) #13
  call void @llvm.lifetime.end.p0(i64 8, ptr %6) #13
  call void @llvm.lifetime.end.p0(i64 4, ptr %5) #13
  call void @llvm.lifetime.end.p0(i64 4, ptr %4) #13
  call void @llvm.lifetime.end.p0(i64 4, ptr %3) #13
  ret void
}