; Function Attrs: mustprogress nofree norecurse nosync nounwind willreturn memory(read, argmem: readwrite, inaccessiblemem: none) uwtable
define dso_local void @_ZN23btGeneric6DofConstraint13calcAnchorPosEv(ptr noundef nonnull align 8 captures(none) dereferenceable(1333) initializes((1308, 1324)) %0) unnamed_addr #14 align 2 {
  %2 = getelementptr inbounds nuw i8, ptr %0, i64 40
  %3 = load ptr, ptr %2, align 8, !tbaa !48
  %4 = getelementptr inbounds nuw i8, ptr %3, i64 452
  %5 = load float, ptr %4, align 4, !tbaa !58
  %6 = getelementptr inbounds nuw i8, ptr %0, i64 48
  %7 = load ptr, ptr %6, align 8, !tbaa !49
  %8 = getelementptr inbounds nuw i8, ptr %7, i64 452
  %9 = load float, ptr %8, align 4, !tbaa !58
  %10 = fcmp oeq float %9, 0.000000e+00
  %11 = fadd float %5, %9
  %12 = fdiv float %5, %11
  %storemerge = select i1 %10, float 1.000000e+00, float %12
  %13 = getelementptr inbounds nuw i8, ptr %0, i64 1136
  %14 = getelementptr inbounds nuw i8, ptr %0, i64 1200
  %15 = load float, ptr %13, align 8, !tbaa !10
  %16 = fmul float %15, %storemerge
  %17 = getelementptr inbounds nuw i8, ptr %0, i64 1140
  %18 = load float, ptr %17, align 4, !tbaa !10
  %19 = fmul float %18, %storemerge
  %20 = getelementptr inbounds nuw i8, ptr %0, i64 1144
  %21 = load float, ptr %20, align 8, !tbaa !10
  %22 = fmul float %storemerge, %21
  %23 = fsub float 1.000000e+00, %storemerge
  %24 = load float, ptr %14, align 8, !tbaa !10
  %25 = fmul float %24, %23
  %26 = getelementptr inbounds nuw i8, ptr %0, i64 1204
  %27 = load float, ptr %26, align 4, !tbaa !10
  %28 = fmul float %23, %27
  %29 = getelementptr inbounds nuw i8, ptr %0, i64 1208
  %30 = load float, ptr %29, align 8, !tbaa !10
  %31 = fmul float %23, %30
  %32 = fadd float %16, %25
  %33 = fadd float %19, %28
  %34 = fadd float %22, %31
  %.sroa.0.0.vec.insert.i12 = insertelement <2 x float> poison, float %32, i64 0
  %.sroa.0.4.vec.insert.i13 = insertelement <2 x float> %.sroa.0.0.vec.insert.i12, float %33, i64 1
  %.sroa.3.12.vec.insert.i14 = insertelement <2 x float> <float poison, float 0.000000e+00>, float %34, i64 0
  %35 = getelementptr inbounds nuw i8, ptr %0, i64 1308
  store <2 x float> %.sroa.0.4.vec.insert.i13, ptr %35, align 4
  %.sroa.4.0..sroa_idx = getelementptr inbounds nuw i8, ptr %0, i64 1316
  store <2 x float> %.sroa.3.12.vec.insert.i14, ptr %.sroa.4.0..sroa_idx, align 4, !tbaa !8
  ret void
}